; Function Attrs: mustprogress nofree norecurse nosync nounwind willreturn memory(read, inaccessiblemem: none) uwtable
define hidden noundef i32 @_ZN4lean2ir11fn_body_tagERKNS_10object_refE(ptr noundef nonnull readonly align 8 captures(none) dereferenceable(8) %0) local_unnamed_addr #3 {
  %2 = load ptr, ptr %0, align 8, !tbaa !6
  %3 = ptrtoint ptr %2 to i64
  %4 = and i64 %3, 1
  %.not = icmp eq i64 %4, 0
  br i1 %.not, label %8, label %5

5:                                                ; preds = %1
  %6 = lshr i64 %3, 1
  %7 = trunc i64 %6 to i32
  br label %11

8:                                                ; preds = %1
  %9 = getelementptr i8, ptr %2, i64 4
  %.val.i = load i32, ptr %9, align 4
  %10 = lshr i32 %.val.i, 24
  br label %11

11:                                               ; preds = %8, %5
  %12 = phi i32 [ %7, %5 ], [ %10, %8 ]
  ret i32 %12
}